; Function Attrs: nounwind uwtable
define ptr @l_Lake_Toml_decodeDecInt(ptr noundef %0) local_unnamed_addr #0 {
  %2 = tail call ptr @l_Lake_Toml_decodeSign(ptr noundef %0)
  %3 = getelementptr inbounds nuw i8, ptr %2, i64 8
  %4 = load ptr, ptr %3, align 8, !tbaa !4
  %5 = ptrtoint ptr %4 to i64
  %6 = and i64 %5, 1
  %.not = icmp eq i64 %6, 0
  br i1 %.not, label %7, label %lean_dec.exit27

7:                                                ; preds = %1
  %.val.i = load i32, ptr %4, align 4, !tbaa !8
  %8 = icmp sgt i32 %.val.i, 0
  br i1 %8, label %9, label %11, !prof !11

9:                                                ; preds = %7
  %10 = add nuw i32 %.val.i, 1
  store i32 %10, ptr %4, align 4, !tbaa !8
  br label %13

11:                                               ; preds = %7
  %.not.i38 = icmp eq i32 %.val.i, 0
  br i1 %.not.i38, label %lean_dec.exit27, label %12

12:                                               ; preds = %11
  tail call void @lean_inc_ref_cold(ptr noundef nonnull %4) #7
  %.pr = load i32, ptr %4, align 4, !tbaa !8
  br label %13

13:                                               ; preds = %12, %9
  %14 = phi i32 [ %.pr, %12 ], [ %10, %9 ]
  %15 = icmp sgt i32 %14, 1
  br i1 %15, label %16, label %18, !prof !16

16:                                               ; preds = %13
  %17 = add nsw i32 %14, -1
  store i32 %17, ptr %4, align 4, !tbaa !8
  br label %lean_dec.exit27

18:                                               ; preds = %13
  %.not.i = icmp eq i32 %14, 0
  br i1 %.not.i, label %lean_dec.exit27, label %19

19:                                               ; preds = %18
  tail call void @lean_dec_ref_cold(ptr noundef nonnull %4) #7
  br label %lean_dec.exit27

lean_dec.exit27:                                  ; preds = %1, %11, %19, %18, %16
  %20 = and i64 %5, 510
  %21 = icmp eq i64 %20, 0
  %22 = getelementptr inbounds nuw i8, ptr %2, i64 16
  %23 = load ptr, ptr %22, align 8, !tbaa !4
  %24 = ptrtoint ptr %23 to i64
  %25 = and i64 %24, 1
  %.not53 = icmp eq i64 %25, 0
  br i1 %21, label %26, label %60

26:                                               ; preds = %lean_dec.exit27
  br i1 %.not53, label %27, label %lean_inc.exit21

27:                                               ; preds = %26
  %.val.i39 = load i32, ptr %23, align 4, !tbaa !8
  %28 = icmp sgt i32 %.val.i39, 0
  br i1 %28, label %29, label %31, !prof !11

29:                                               ; preds = %27
  %30 = add nuw i32 %.val.i39, 1
  store i32 %30, ptr %23, align 4, !tbaa !8
  br label %lean_inc.exit21

31:                                               ; preds = %27
  %.not.i40 = icmp eq i32 %.val.i39, 0
  br i1 %.not.i40, label %lean_inc.exit21, label %32

32:                                               ; preds = %31
  tail call void @lean_inc_ref_cold(ptr noundef nonnull %23) #7
  br label %lean_inc.exit21

lean_inc.exit21:                                  ; preds = %32, %31, %29, %26
  %33 = ptrtoint ptr %2 to i64
  %34 = and i64 %33, 1
  %.not54 = icmp eq i64 %34, 0
  br i1 %.not54, label %35, label %lean_dec.exit26

35:                                               ; preds = %lean_inc.exit21
  %36 = load i32, ptr %2, align 4, !tbaa !8
  %37 = icmp sgt i32 %36, 1
  br i1 %37, label %38, label %40, !prof !11

38:                                               ; preds = %35
  %39 = add nsw i32 %36, -1
  store i32 %39, ptr %2, align 4, !tbaa !8
  br label %lean_dec.exit26

40:                                               ; preds = %35
  %.not.i28 = icmp eq i32 %36, 0
  br i1 %.not.i28, label %lean_dec.exit26, label %41

41:                                               ; preds = %40
  tail call void @lean_dec_ref_cold(ptr noundef nonnull %2) #7
  br label %lean_dec.exit26

lean_dec.exit26:                                  ; preds = %41, %40, %38, %lean_inc.exit21
  %42 = getelementptr i8, ptr %23, i64 8
  %.val.i42 = load i64, ptr %42, align 8, !tbaa !12
  %43 = shl i64 %.val.i42, 1
  %44 = add i64 %43, -1
  %45 = inttoptr i64 %44 to ptr
  %46 = tail call ptr @l_String_foldlAux___at_Lake_Toml_decodeDecNum___spec__1(ptr noundef %23, ptr noundef nonnull %45, ptr noundef nonnull inttoptr (i64 1 to ptr), ptr noundef nonnull inttoptr (i64 1 to ptr))
  br i1 %.not53, label %47, label %lean_dec.exit25

47:                                               ; preds = %lean_dec.exit26
  %48 = load i32, ptr %23, align 4, !tbaa !8
  %49 = icmp sgt i32 %48, 1
  br i1 %49, label %50, label %52, !prof !11

50:                                               ; preds = %47
  %51 = add nsw i32 %48, -1
  store i32 %51, ptr %23, align 4, !tbaa !8
  br label %lean_dec.exit25

52:                                               ; preds = %47
  %.not.i30 = icmp eq i32 %48, 0
  br i1 %.not.i30, label %lean_dec.exit25, label %53

53:                                               ; preds = %52
  tail call void @lean_dec_ref_cold(ptr noundef nonnull %23) #7
  br label %lean_dec.exit25

lean_dec.exit25:                                  ; preds = %53, %52, %50, %lean_dec.exit26
  %54 = ptrtoint ptr %46 to i64
  %55 = and i64 %54, 1
  %.not.i43 = icmp eq i64 %55, 0
  %56 = icmp ult ptr %46, inttoptr (i64 4294967296 to ptr)
  %or.cond.i = or i1 %56, %.not.i43
  br i1 %or.cond.i, label %lean_nat_to_int.exit, label %57

57:                                               ; preds = %lean_dec.exit25
  %58 = lshr i64 %54, 1
  %59 = tail call ptr @lean_big_size_t_to_int(i64 noundef %58) #7
  br label %lean_nat_to_int.exit

60:                                               ; preds = %lean_dec.exit27
  br i1 %.not53, label %61, label %lean_inc.exit

61:                                               ; preds = %60
  %.val.i44 = load i32, ptr %23, align 4, !tbaa !8
  %62 = icmp sgt i32 %.val.i44, 0
  br i1 %62, label %63, label %65, !prof !11

63:                                               ; preds = %61
  %64 = add nuw i32 %.val.i44, 1
  store i32 %64, ptr %23, align 4, !tbaa !8
  br label %lean_inc.exit

65:                                               ; preds = %61
  %.not.i45 = icmp eq i32 %.val.i44, 0
  br i1 %.not.i45, label %lean_inc.exit, label %66

66:                                               ; preds = %65
  tail call void @lean_inc_ref_cold(ptr noundef nonnull %23) #7
  br label %lean_inc.exit

lean_inc.exit:                                    ; preds = %66, %65, %63, %60
  %67 = ptrtoint ptr %2 to i64
  %68 = and i64 %67, 1
  %.not51 = icmp eq i64 %68, 0
  br i1 %.not51, label %69, label %lean_dec.exit24

69:                                               ; preds = %lean_inc.exit
  %70 = load i32, ptr %2, align 4, !tbaa !8
  %71 = icmp sgt i32 %70, 1
  br i1 %71, label %72, label %74, !prof !11

72:                                               ; preds = %69
  %73 = add nsw i32 %70, -1
  store i32 %73, ptr %2, align 4, !tbaa !8
  br label %lean_dec.exit24

74:                                               ; preds = %69
  %.not.i32 = icmp eq i32 %70, 0
  br i1 %.not.i32, label %lean_dec.exit24, label %75

75:                                               ; preds = %74
  tail call void @lean_dec_ref_cold(ptr noundef nonnull %2) #7
  br label %lean_dec.exit24

lean_dec.exit24:                                  ; preds = %75, %74, %72, %lean_inc.exit
  %76 = getelementptr i8, ptr %23, i64 8
  %.val.i47 = load i64, ptr %76, align 8, !tbaa !12
  %77 = shl i64 %.val.i47, 1
  %78 = add i64 %77, -1
  %79 = inttoptr i64 %78 to ptr
  %80 = tail call ptr @l_String_foldlAux___at_Lake_Toml_decodeDecNum___spec__1(ptr noundef %23, ptr noundef nonnull %79, ptr noundef nonnull inttoptr (i64 1 to ptr), ptr noundef nonnull inttoptr (i64 1 to ptr))
  br i1 %.not53, label %81, label %lean_dec.exit23

81:                                               ; preds = %lean_dec.exit24
  %82 = load i32, ptr %23, align 4, !tbaa !8
  %83 = icmp sgt i32 %82, 1
  br i1 %83, label %84, label %86, !prof !11

84:                                               ; preds = %81
  %85 = add nsw i32 %82, -1
  store i32 %85, ptr %23, align 4, !tbaa !8
  br label %lean_dec.exit23

86:                                               ; preds = %81
  %.not.i34 = icmp eq i32 %82, 0
  br i1 %.not.i34, label %lean_dec.exit23, label %87

87:                                               ; preds = %86
  tail call void @lean_dec_ref_cold(ptr noundef nonnull %23) #7
  br label %lean_dec.exit23

lean_dec.exit23:                                  ; preds = %87, %86, %84, %lean_dec.exit24
  %88 = tail call ptr @l_Int_negOfNat(ptr noundef %80) #7
  %89 = ptrtoint ptr %80 to i64
  %90 = and i64 %89, 1
  %.not52 = icmp eq i64 %90, 0
  br i1 %.not52, label %91, label %lean_nat_to_int.exit

91:                                               ; preds = %lean_dec.exit23
  %92 = load i32, ptr %80, align 4, !tbaa !8
  %93 = icmp sgt i32 %92, 1
  br i1 %93, label %94, label %96, !prof !11

94:                                               ; preds = %91
  %95 = add nsw i32 %92, -1
  store i32 %95, ptr %80, align 4, !tbaa !8
  br label %lean_nat_to_int.exit

96:                                               ; preds = %91
  %.not.i36 = icmp eq i32 %92, 0
  br i1 %.not.i36, label %lean_nat_to_int.exit, label %97

97:                                               ; preds = %96
  tail call void @lean_dec_ref_cold(ptr noundef nonnull %80) #7
  br label %lean_nat_to_int.exit

lean_nat_to_int.exit:                             ; preds = %lean_dec.exit23, %94, %96, %97, %57, %lean_dec.exit25
  %.0 = phi ptr [ %59, %57 ], [ %46, %lean_dec.exit25 ], [ %88, %97 ], [ %88, %96 ], [ %88, %94 ], [ %88, %lean_dec.exit23 ]
  ret ptr %.0
}